target datalayout = "e-m:e-p270:32:32-p271:32:32-p272:64:64-i64:64-i128:128-f80:128-n8:16:32:64-S128"
target triple = "x86_64-pc-linux-gnu"

%"class.cvc5::internal::theory::arith::linear::UpdateInfo" = type <{ i32, i32, %"class.std::optional.0", i8, [3 x i8], %"class.std::optional", %"class.std::optional", [4 x i8], %"class.std::optional.0", %"class.std::optional.10", ptr, i32, [4 x i8] }>
%"class.std::optional" = type { %"struct.std::_Optional_base" }
%"struct.std::_Optional_base" = type { %"struct.std::_Optional_payload" }
%"struct.std::_Optional_payload" = type { %"struct.std::_Optional_payload_base.base", [3 x i8] }
%"struct.std::_Optional_payload_base.base" = type <{ %"union.std::_Optional_payload_base<int>::_Storage", i8 }>
%"union.std::_Optional_payload_base<int>::_Storage" = type { i32 }
%"class.std::optional.0" = type { %"struct.std::_Optional_base.1" }
%"struct.std::_Optional_base.1" = type { %"struct.std::_Optional_payload.3" }
%"struct.std::_Optional_payload.3" = type { %"struct.std::_Optional_payload.base.7", [7 x i8] }
%"struct.std::_Optional_payload.base.7" = type { %"struct.std::_Optional_payload_base.base.6" }
%"struct.std::_Optional_payload_base.base.6" = type <{ %"union.std::_Optional_payload_base<cvc5::internal::DeltaRational>::_Storage", i8 }>
%"union.std::_Optional_payload_base<cvc5::internal::DeltaRational>::_Storage" = type { %"class.cvc5::internal::DeltaRational" }
%"class.cvc5::internal::DeltaRational" = type { %"class.cvc5::internal::Rational", %"class.cvc5::internal::Rational" }
%"class.cvc5::internal::Rational" = type { %class.__gmp_expr }
%class.__gmp_expr = type { [1 x %struct.__mpq_struct] }
%struct.__mpq_struct = type { %struct.__mpz_struct, %struct.__mpz_struct }
%struct.__mpz_struct = type { i32, i32, ptr }
%"class.std::optional.10" = type { %"struct.std::_Optional_base.11" }
%"struct.std::_Optional_base.11" = type { %"struct.std::_Optional_payload.13" }
%"struct.std::_Optional_payload.13" = type { %"struct.std::_Optional_payload_base.base.15", [7 x i8] }
%"struct.std::_Optional_payload_base.base.15" = type <{ %"union.std::_Optional_payload_base<const cvc5::internal::Rational *>::_Storage", i8 }>
%"union.std::_Optional_payload_base<const cvc5::internal::Rational *>::_Storage" = type { ptr }
%"struct.std::_Optional_payload_base.5" = type <{ %"union.std::_Optional_payload_base<cvc5::internal::DeltaRational>::_Storage", i8, [7 x i8] }>
%"struct.std::_Optional_payload_base" = type <{ %"union.std::_Optional_payload_base<int>::_Storage", i8, [3 x i8] }>
%"struct.std::_Optional_payload_base.14" = type <{ %"union.std::_Optional_payload_base<const cvc5::internal::Rational *>::_Storage", i8, [7 x i8] }>

; Function Attrs: mustprogress nounwind uwtable
define linkonce_odr hidden void @_ZNSt22_Optional_payload_baseIN4cvc58internal13DeltaRationalEE8_StorageIS2_Lb0EEC2Ev(ptr noundef nonnull align 8 dereferenceable(64) %0) unnamed_addr #5 comdat align 2 {
  %2 = alloca ptr, align 8
  store ptr %0, ptr %2, align 8, !tbaa !84
  ret void
}

; Function Attrs: mustprogress nounwind uwtable
define linkonce_odr hidden void @_ZNSt22_Optional_payload_baseIPKN4cvc58internal8RationalEE8_StorageIS4_Lb1EEC2Ev(ptr noundef nonnull align 8 dereferenceable(8) %0) unnamed_addr #5 comdat align 2 {
  %2 = alloca ptr, align 8
  store ptr %0, ptr %2, align 8, !tbaa !102
  ret void
}

; Function Attrs: mustprogress nounwind uwtable
define linkonce_odr hidden void @_ZNSt22_Optional_payload_baseIiE8_StorageIiLb1EEC2Ev(ptr noundef nonnull align 4 dereferenceable(4) %0) unnamed_addr #5 comdat align 2 {
  %2 = alloca ptr, align 8
  store ptr %0, ptr %2, align 8, !tbaa !93
  ret void
}

; Function Attrs: mustprogress nounwind uwtable
define linkonce_odr hidden void @_ZNSt22_Optional_payload_baseIN4cvc58internal13DeltaRationalEEC2Ev(ptr noundef nonnull align 8 dereferenceable(65) %0) unnamed_addr #5 comdat align 2 {
  %2 = alloca ptr, align 8
  store ptr %0, ptr %2, align 8, !tbaa !81
  %3 = load ptr, ptr %2, align 8
  %4 = getelementptr inbounds nuw %"struct.std::_Optional_payload_base.5", ptr %3, i32 0, i32 0
  call void @_ZNSt22_Optional_payload_baseIN4cvc58internal13DeltaRationalEE8_StorageIS2_Lb0EEC2Ev(ptr noundef nonnull align 8 dereferenceable(64) %4) #3
  %5 = getelementptr inbounds nuw %"struct.std::_Optional_payload_base.5", ptr %3, i32 0, i32 1
  store i8 0, ptr %5, align 8, !tbaa !83
  ret void
}

; Function Attrs: mustprogress nounwind uwtable
define linkonce_odr hidden void @_ZNSt22_Optional_payload_baseIPKN4cvc58internal8RationalEEC2Ev(ptr noundef nonnull align 8 dereferenceable(9) %0) unnamed_addr #5 comdat align 2 {
  %2 = alloca ptr, align 8
  store ptr %0, ptr %2, align 8, !tbaa !99
  %3 = load ptr, ptr %2, align 8
  %4 = getelementptr inbounds nuw %"struct.std::_Optional_payload_base.14", ptr %3, i32 0, i32 0
  call void @_ZNSt22_Optional_payload_baseIPKN4cvc58internal8RationalEE8_StorageIS4_Lb1EEC2Ev(ptr noundef nonnull align 8 dereferenceable(8) %4) #3
  %5 = getelementptr inbounds nuw %"struct.std::_Optional_payload_base.14", ptr %3, i32 0, i32 1
  store i8 0, ptr %5, align 8, !tbaa !101
  ret void
}

; Function Attrs: mustprogress nounwind uwtable
define linkonce_odr hidden void @_ZNSt22_Optional_payload_baseIiEC2Ev(ptr noundef nonnull align 4 dereferenceable(5) %0) unnamed_addr #5 comdat align 2 {
  %2 = alloca ptr, align 8
  store ptr %0, ptr %2, align 8, !tbaa !90
  %3 = load ptr, ptr %2, align 8
  %4 = getelementptr inbounds nuw %"struct.std::_Optional_payload_base", ptr %3, i32 0, i32 0
  call void @_ZNSt22_Optional_payload_baseIiE8_StorageIiLb1EEC2Ev(ptr noundef nonnull align 4 dereferenceable(4) %4) #3
  %5 = getelementptr inbounds nuw %"struct.std::_Optional_payload_base", ptr %3, i32 0, i32 1
  store i8 0, ptr %5, align 4, !tbaa !92
  ret void
}

; Function Attrs: mustprogress nounwind uwtable
define linkonce_odr hidden void @_ZNSt17_Optional_payloadIN4cvc58internal13DeltaRationalELb1ELb0ELb0EEC2Ev(ptr noundef nonnull align 8 dereferenceable(65) %0) unnamed_addr #5 comdat align 2 {
  %2 = alloca ptr, align 8
  store ptr %0, ptr %2, align 8, !tbaa !79
  %3 = load ptr, ptr %2, align 8
  call void @_ZNSt22_Optional_payload_baseIN4cvc58internal13DeltaRationalEEC2Ev(ptr noundef nonnull align 8 dereferenceable(65) %3) #3
  ret void
}

; Function Attrs: mustprogress nounwind uwtable
define linkonce_odr hidden void @_ZNSt17_Optional_payloadIPKN4cvc58internal8RationalELb1ELb1ELb1EEC2Ev(ptr noundef nonnull align 8 dereferenceable(9) %0) unnamed_addr #5 comdat align 2 {
  %2 = alloca ptr, align 8
  store ptr %0, ptr %2, align 8, !tbaa !97
  %3 = load ptr, ptr %2, align 8
  call void @_ZNSt22_Optional_payload_baseIPKN4cvc58internal8RationalEEC2Ev(ptr noundef nonnull align 8 dereferenceable(9) %3) #3
  ret void
}

; Function Attrs: mustprogress nounwind uwtable
define linkonce_odr hidden void @_ZNSt17_Optional_payloadIiLb1ELb1ELb1EEC2Ev(ptr noundef nonnull align 4 dereferenceable(5) %0) unnamed_addr #5 comdat align 2 {
  %2 = alloca ptr, align 8
  store ptr %0, ptr %2, align 8, !tbaa !88
  %3 = load ptr, ptr %2, align 8
  call void @_ZNSt22_Optional_payload_baseIiEC2Ev(ptr noundef nonnull align 4 dereferenceable(5) %3) #3
  ret void
}

; Function Attrs: mustprogress nounwind uwtable
define linkonce_odr hidden void @_ZNSt17_Optional_payloadIN4cvc58internal13DeltaRationalELb0ELb0ELb0EEC2Ev(ptr noundef nonnull align 8 dereferenceable(65) %0) unnamed_addr #5 comdat align 2 {
  %2 = alloca ptr, align 8
  store ptr %0, ptr %2, align 8, !tbaa !77
  %3 = load ptr, ptr %2, align 8
  call void @_ZNSt17_Optional_payloadIN4cvc58internal13DeltaRationalELb1ELb0ELb0EEC2Ev(ptr noundef nonnull align 8 dereferenceable(65) %3) #3
  ret void
}

; Function Attrs: mustprogress nounwind uwtable
define linkonce_odr hidden void @_ZNSt14_Optional_baseIPKN4cvc58internal8RationalELb1ELb1EEC2Ev(ptr noundef nonnull align 8 dereferenceable(16) %0) unnamed_addr #5 comdat align 2 {
  %2 = alloca ptr, align 8
  store ptr %0, ptr %2, align 8, !tbaa !95
  %3 = load ptr, ptr %2, align 8
  %4 = getelementptr inbounds nuw %"struct.std::_Optional_base.11", ptr %3, i32 0, i32 0
  call void @_ZNSt17_Optional_payloadIPKN4cvc58internal8RationalELb1ELb1ELb1EEC2Ev(ptr noundef nonnull align 8 dereferenceable(9) %4) #3
  ret void
}

; Function Attrs: mustprogress nounwind uwtable
define linkonce_odr hidden void @_ZNSt14_Optional_baseIiLb1ELb1EEC2Ev(ptr noundef nonnull align 4 dereferenceable(8) %0) unnamed_addr #5 comdat align 2 {
  %2 = alloca ptr, align 8
  store ptr %0, ptr %2, align 8, !tbaa !86
  %3 = load ptr, ptr %2, align 8
  %4 = getelementptr inbounds nuw %"struct.std::_Optional_base", ptr %3, i32 0, i32 0
  call void @_ZNSt17_Optional_payloadIiLb1ELb1ELb1EEC2Ev(ptr noundef nonnull align 4 dereferenceable(5) %4) #3
  ret void
}

; Function Attrs: mustprogress nounwind uwtable
define linkonce_odr hidden void @_ZNSt14_Optional_baseIN4cvc58internal13DeltaRationalELb0ELb0EEC2Ev(ptr noundef nonnull align 8 dereferenceable(72) %0) unnamed_addr #5 comdat align 2 {
  %2 = alloca ptr, align 8
  store ptr %0, ptr %2, align 8, !tbaa !75
  %3 = load ptr, ptr %2, align 8
  %4 = getelementptr inbounds nuw %"struct.std::_Optional_base.1", ptr %3, i32 0, i32 0
  call void @_ZNSt17_Optional_payloadIN4cvc58internal13DeltaRationalELb0ELb0ELb0EEC2Ev(ptr noundef nonnull align 8 dereferenceable(65) %4) #3
  ret void
}

; Function Attrs: mustprogress nounwind uwtable
define linkonce_odr hidden void @_ZNSt8optionalIPKN4cvc58internal8RationalEEC2Ev(ptr noundef nonnull align 8 dereferenceable(16) %0) unnamed_addr #5 comdat align 2 {
  %2 = alloca ptr, align 8
  store ptr %0, ptr %2, align 8, !tbaa !38
  %3 = load ptr, ptr %2, align 8
  call void @_ZNSt14_Optional_baseIPKN4cvc58internal8RationalELb1ELb1EEC2Ev(ptr noundef nonnull align 8 dereferenceable(16) %3) #3
  ret void
}

; Function Attrs: mustprogress nounwind uwtable
define linkonce_odr hidden void @_ZNSt8optionalIiEC2Ev(ptr noundef nonnull align 4 dereferenceable(8) %0) unnamed_addr #5 comdat align 2 {
  %2 = alloca ptr, align 8
  store ptr %0, ptr %2, align 8, !tbaa !8
  %3 = load ptr, ptr %2, align 8
  call void @_ZNSt14_Optional_baseIiLb1ELb1EEC2Ev(ptr noundef nonnull align 4 dereferenceable(8) %3) #3
  ret void
}

; Function Attrs: mustprogress nounwind uwtable
define linkonce_odr hidden void @_ZNSt8optionalIN4cvc58internal13DeltaRationalEEC2Ev(ptr noundef nonnull align 8 dereferenceable(72) %0) unnamed_addr #5 comdat align 2 {
  %2 = alloca ptr, align 8
  store ptr %0, ptr %2, align 8, !tbaa !36
  %3 = load ptr, ptr %2, align 8
  call void @_ZNSt14_Optional_baseIN4cvc58internal13DeltaRationalELb0ELb0EEC2Ev(ptr noundef nonnull align 8 dereferenceable(72) %3) #3
  ret void
}

; Function Attrs: mustprogress nounwind uwtable
define hidden void @_ZN4cvc58internal6theory5arith6linear10UpdateInfoC2Eji(ptr noundef nonnull align 8 dereferenceable(204) %0, i32 noundef %1, i32 noundef %2) unnamed_addr #5 align 2 {
  %4 = alloca ptr, align 8
  %5 = alloca i32, align 4
  %6 = alloca i32, align 4
  store ptr %0, ptr %4, align 8, !tbaa !12
  store i32 %1, ptr %5, align 4, !tbaa !10
  store i32 %2, ptr %6, align 4, !tbaa !10
  %7 = load ptr, ptr %4, align 8
  %8 = getelementptr inbounds nuw %"class.cvc5::internal::theory::arith::linear::UpdateInfo", ptr %7, i32 0, i32 0
  %9 = load i32, ptr %5, align 4, !tbaa !10
  store i32 %9, ptr %8, align 8, !tbaa !14
  %10 = getelementptr inbounds nuw %"class.cvc5::internal::theory::arith::linear::UpdateInfo", ptr %7, i32 0, i32 1
  %11 = load i32, ptr %6, align 4, !tbaa !10
  store i32 %11, ptr %10, align 4, !tbaa !32
  %12 = getelementptr inbounds nuw %"class.cvc5::internal::theory::arith::linear::UpdateInfo", ptr %7, i32 0, i32 2
  call void @_ZNSt8optionalIN4cvc58internal13DeltaRationalEEC2Ev(ptr noundef nonnull align 8 dereferenceable(72) %12) #3
  %13 = getelementptr inbounds nuw %"class.cvc5::internal::theory::arith::linear::UpdateInfo", ptr %7, i32 0, i32 3
  store i8 0, ptr %13, align 8, !tbaa !33
  %14 = getelementptr inbounds nuw %"class.cvc5::internal::theory::arith::linear::UpdateInfo", ptr %7, i32 0, i32 5
  call void @_ZNSt8optionalIiEC2Ev(ptr noundef nonnull align 4 dereferenceable(8) %14) #3
  %15 = getelementptr inbounds nuw %"class.cvc5::internal::theory::arith::linear::UpdateInfo", ptr %7, i32 0, i32 6
  call void @_ZNSt8optionalIiEC2Ev(ptr noundef nonnull align 4 dereferenceable(8) %15) #3
  %16 = getelementptr inbounds nuw %"class.cvc5::internal::theory::arith::linear::UpdateInfo", ptr %7, i32 0, i32 8
  call void @_ZNSt8optionalIN4cvc58internal13DeltaRationalEEC2Ev(ptr noundef nonnull align 8 dereferenceable(72) %16) #3
  %17 = getelementptr inbounds nuw %"class.cvc5::internal::theory::arith::linear::UpdateInfo", ptr %7, i32 0, i32 9
  call void @_ZNSt8optionalIPKN4cvc58internal8RationalEEC2Ev(ptr noundef nonnull align 8 dereferenceable(16) %17) #3
  %18 = getelementptr inbounds nuw %"class.cvc5::internal::theory::arith::linear::UpdateInfo", ptr %7, i32 0, i32 10
  store ptr null, ptr %18, align 8, !tbaa !34
  %19 = getelementptr inbounds nuw %"class.cvc5::internal::theory::arith::linear::UpdateInfo", ptr %7, i32 0, i32 11
  store i32 7, ptr %19, align 8, !tbaa !35
  ret void
}